MPASM 5.87                    SNAKE_GAME.ASM   6-10-2022  14:09:18         PAGE  1


LOC  OBJECT CODE     LINE SOURCE TEXT
  VALUE

                      00001 ;*******************************************************************************************************
                            *********************************************
                      00002 ;*******************************************************************************************************
                            *********************************************
                      00003 ; AUTORES: Franco Riba y Kevil Walter Reynoso Choque 
                      00004 ; FECHA: 08/06/2022
                      00005 ; HARDWARE: PIC16F887
                      00006 ; DESCRIPCIÓN: Videojuego Snake con display en matriz 8x8, programado en lenguaje ensamblador
                      00007 ; CONTEXTO: Este es el proyecto integrador de fin de curso de la asignatura Electrónica Digital 2, de la
                             FCEFyN, Universidad Nacional de Córdoba, UNC
                      00008 ;*******************************************************************************************************
                            **********************************************
                      00009 ;*******************************************************************************************************
                            **********************************************
                      00010 ;-------------------------------------------------------------------------------
                      00011 ;-----------------------------  Precompilación  --------------------------------
                      00012 ;-------------------------------------------------------------------------------
                      00013         LIST            P = 16F887, R=DEC       
                      00014         include         <P16F887.inc>           
                      00001         LIST
                      00002 
                      00003 ;==========================================================================
                      00004 ; Build date : Jan 06 2020
                      00005 ;  MPASM PIC16F887 processor include
                      00006 ; 
                      00007 ;  (c) Copyright 1999-2020 Microchip Technology, All rights reserved
                      00008 ;==========================================================================
                      00009 
                      00810         LIST
2007   20E5           00015  __CONFIG _CONFIG1, _INTOSC & _WDTE_OFF & _PWRTE_ON & _MCLRE_ON & _CP_OFF & _CPD_OFF & _BOREN_OFF & _IES
                            O_OFF & _FCMEN_OFF & _LVP_OFF
2008   3FFF           00016  __CONFIG _CONFIG2, _BOR4V_BOR40V & _WRT_OFF
                      00017 ;-------------------------------------------------------------------------------
                      00018 ;-----------------------------  Descripción de Puertos en Hardware  ------------
                      00019 ;-------------------------------------------------------------------------------            
                      00020 ; PORTD - Salida - RD0 - Pin 19 - Row 1
                      00021 ; PORTD - Salida - RD1 - Pin 20 - Row 2
                      00022 ; PORTD - Salida - RD2 - Pin 21 - Row 3
                      00023 ; PORTD - Salida - RD3 - Pin 22 - Row 4
                      00024 ; PORTD - Salida - RD4 - Pin 27 - Row 5 
                      00025 ; PORTD - Salida - RD5 - Pin 28 - Row 6
                      00026 ; PORTD - Salida - RD6 - Pin 29 - Row 7 
                      00027 ; PORTD - Salida - RD7 - Pin 30 - Row 7
                      00028 
                      00029 ; PORTC - Salida - RC0 - Pin 15 - Column 1
                      00030 ; PORTC - Salida - RC1 - Pin 16 - Column 2
                      00031 ; PORTC - Salida - RC2 - Pin 17 - Column 3
                      00032 ; PORTC - Salida - RC3 - Pin 18 - Column 4
                      00033 ; PORTC - Salida - RC4 - Pin 23 - Column 5
                      00034 ; PORTC - Salida - RC5 - Pin 24 - Column 6
                      00035 ; PORTC - Salida - RB2 - Pin 25 - Column 7
                      00036 ; PORTC - Salida - RB3 - Pin 26 - Column 8
                      00037         
MPASM 5.87                    SNAKE_GAME.ASM   6-10-2022  14:09:18         PAGE  2


LOC  OBJECT CODE     LINE SOURCE TEXT
  VALUE

                      00038 ; PORTB - Entrada - RB7 - Pin 40 - Botón DOWN
                      00039 ; PORTB - Entrada - RB6 - Pin 39 - Botón UP
                      00040 ; PORTB - Entrada - RB5 - Pin 38 - Botón LEFT
                      00041 ; PORTB - Entrada - RB4 - Pin 37 - Botón RIGHT
                      00042                 
                      00043 ;-------------------------------------------------------------------------------
                      00044 ;--------------------------------  Variables  ---------------------------------- 
                      00045 ;-------------------------------------------------------------------------------
                      00046             cblock      0x20        
  00000020            00047             temp
  00000021            00048             temp2
  00000022            00049             temp3
  00000023            00050             temp4
  00000024            00051             temp5
  00000025            00052             C1                  ;   Columna 1 de display de matriz
  00000026            00053             C2                  ;   Columna 2 de display de matriz
  00000027            00054             C3                  ;   Columna 3 de display de matriz
  00000028            00055             C4                  ;   Columna 4 de display de matriz
  00000029            00056             C5                  ;   Columna 5 de display de matriz
  0000002A            00057             C6                  ;   Columna 6 de display de matriz
  0000002B            00058             C7                  ;   Columna 7 de display de matriz
  0000002C            00059             C8                  ;   Columna 8 de display de matriz
  0000002D            00060             S1                  ;   Posición del snake en la columna 1 
  0000002E            00061             S2                  ;   Posición del snake en la columna 2 
  0000002F            00062             S3                  ;   Posición del snake en la columna 3 
  00000030            00063             S4                  ;   Posición del snake en la columna 4 
  00000031            00064             S5                  ;   Posición del snake en la columna 5 
  00000032            00065             S6                  ;   Posición del snake en la columna 6 
  00000033            00066             S7                  ;   Posición del snake en la columna 7 
  00000034            00067             S8                  ;   Posición del snake en la columna 8 
  00000035            00068             Posind              ;   Indicador de columna, bits 4-0
  00000036            00069             Posdir              ;   Dirección del snake 0-up, 1-down, 2-left, 3-right
  00000037            00070             w_save
  00000038            00071             status_save
  00000039            00072             pclath_save
  0000003A            00073             snake               ;   Tamaño del snake (cant de segmentos)
  0000003B            00074             colind              ;   Indicador de colisión
  0000003C            00075             rattmr              ;   Indica si ocurrieron las suficientes interrupciones del timer para a
                            gregar una nueva rata 
  0000003D            00076             T1H                 ;   Timer1 High
                      00077             endc
                      00078 ;-------------------------------------------------------------------------------
                      00079 ;-----------------------------  Simbolos  --------------------------------------
                      00080 ;-------------------------------------------------------------------------------
                      00081             #define ROW1    PORTD, RD0          
                      00082             #define ROW2    PORTD, RD1
                      00083             #define ROW3    PORTD, RD2
                      00084             #define ROW4    PORTD, RD3
                      00085             #define ROW5    PORTD, RD4
                      00086             #define ROW6    PORTD, RD5
                      00087             #define ROW7    PORTD, RD6
                      00088             #define ROW8    PORTD, RD7
                      00089             #define COL1    PORTC, RC0
MPASM 5.87                    SNAKE_GAME.ASM   6-10-2022  14:09:18         PAGE  3


LOC  OBJECT CODE     LINE SOURCE TEXT
  VALUE

                      00090             #define COL2    PORTC, RC1
                      00091             #define COL3    PORTC, RC2
                      00092             #define COL4    PORTC, RC3
                      00093             #define COL5    PORTC, RC4
                      00094             #define COL6    PORTC, RC5
                      00095             #define COL7    PORTB, RB2
                      00096             #define COL8    PORTB, RB3
                      00097             #define LEFT    PORTB, RB5
                      00098             #define RIGHT   PORTB, RB4
                      00099             #define DOWN    PORTB, RB6
                      00100             #define UP      PORTB, RB7  
                      00101 
0000                  00102             org         0 
0000   2805           00103             goto        Init
                      00104 ;-------------------------------------------------------------------------------
                      00105 ;-----------------------------  Vector de interrupción  ------------------------
                      00106 ;-------------------------------------------------------------------------------
0004                  00107             org         04
0004   28F0           00108             goto        ISR
                      00109 ;-------------------------------------------------------------------------------
                      00110 ;--------------------------  Inicializacion de Puertos  ------------------------
                      00111 ;-------------------------------------------------------------------------------
0005                  00112 Init        ;PORTC y PORTD salidas, PORTB<RB7-RB4> entradas
0005   1683 1303      00113             banksel     TRISB
0007   30F0           00114             movlw       0xF0
Message[302]: Register in operand not in bank 0.  Ensure that bank bits are correct.
0008   0086           00115             movwf       TRISB
Message[302]: Register in operand not in bank 0.  Ensure that bank bits are correct.
0009   0187           00116             clrf        TRISC           
Message[302]: Register in operand not in bank 0.  Ensure that bank bits are correct.
000A   0188           00117             clrf        TRISD
                      00118             ;todos los pines analogicos los hacemos digitales
000B   1683 1703      00119             banksel     ANSEL
Message[302]: Register in operand not in bank 0.  Ensure that bank bits are correct.
000D   0188           00120             clrf        ANSEL
Message[302]: Register in operand not in bank 0.  Ensure that bank bits are correct.
000E   0189           00121             clrf        ANSELH
                      00122             ;comenzamos con pines de PORTB y PORTD seteados en bajo, y pines de PORTC seteados en alto
000F   1283 1303      00123             banksel     PORTB
0011   0186           00124             clrf        PORTB
0012   0187           00125             clrf        PORTC
0013   30FF           00126             movlw       0xFF
0014   0088           00127             movwf       PORTD
                      00128             ;limpiamos los registros de variables para la lógica        
0015   01B6           00129             clrf        Posdir
0016   01AD           00130             clrf        S1
0017   01AE           00131             clrf        S2
0018   01AF           00132             clrf        S3
0019   01B0           00133             clrf        S4
001A   01B1           00134             clrf        S5
001B   01B2           00135             clrf        S6
001C   01B3           00136             clrf        S7
001D   01B4           00137             clrf        S8
MPASM 5.87                    SNAKE_GAME.ASM   6-10-2022  14:09:18         PAGE  4


LOC  OBJECT CODE     LINE SOURCE TEXT
  VALUE

001E   01BB           00138             clrf        colind
001F   01BC           00139             clrf        rattmr
0020   3001           00140             movlw       d'1'
0021   00BA           00141             movwf       snake           ; El snake empieza con un tamaño de 1 segmento
0022   30A0           00142             movlw       d'160'
0023   0084           00143             movwf       FSR
0024   0180           00144 clrram      clrf        INDF
0025   0A84           00145             incf        FSR, f
0026   0804           00146             movf        FSR, w
0027   3AE6           00147             xorlw       d'230'
0028   1D03           00148             btfss       STATUS, Z
0029   2824           00149             goto        clrram
                      00150             
                      00151 ;-------------------------------------------------------------------------------
                      00152 ;-----------------------  Inicialización de la int del TMR0  -------------------
                      00153 ;-------------------------------------------------------------------------------
002A   1283 1303      00154             banksel     T1CON
002C   3034           00155             movlw       b'00110100'     ;Inicialmente inhabilitado, trabajando con clock interno, no sin
                            cronizado ,osc LP apagado ,  prescaler 1:8, gate inhabilitado
002D   0090           00156             movwf       T1CON
002E   300B           00157             movlw       b'00001011'     ;0x0B
002F   008F           00158             movwf       TMR1H           ;0xDB
0030   30DB           00159             movlw       b'11011011'
0031   008E           00160             movwf       TMR1L           ; genera interrupciones del timer1 cada 0.25s
0032   1683 1303      00161             banksel     PIE1
Message[302]: Register in operand not in bank 0.  Ensure that bank bits are correct.
0034   140C           00162             bsf         PIE1, TMR1IE    ;Habilitación de interrupciones por TMR1
0035   1283 1303      00163             banksel     PIR1
0037   100C           00164             bcf         PIR1, TMR1IF
0038   178B           00165             bsf         INTCON, GIE     ;Interrupciones Globales Habilitadas
0039   170B           00166             bsf         INTCON, PEIE    ;Habilitación por periféricos habilitada (para el TMR1)
                      00167 ;-------------------------------------------------------------------------------
                      00168 ;--------------------------------  Inicialización del Juego  -------------------
                      00169 ;-------------------------------------------------------------------------------
                      00170             ;habilitamos pull-ups para RB7-RB4
003A   1683 1303      00171             banksel     OPTION_REG
Message[302]: Register in operand not in bank 0.  Ensure that bank bits are correct.
003C   1381           00172             bcf         OPTION_REG, NOT_RBPU
003D   1683 1303      00173             banksel     WPUB
003F   30F0           00174             movlw       0xF0
Message[302]: Register in operand not in bank 0.  Ensure that bank bits are correct.
0040   0095           00175             movwf       WPUB
0041   1283 1303      00176             banksel     PORTA
0043   3002           00177             movlw       d'2'            ;cargamos variable para retardo por software 
0044   205F           00178             call        delay1          ; Demora de 0.5s
                      00179             ;definimos el punto donde spawnea la serpiente
0045   3000           00180             movlw       b'00000000'
0046   00A5           00181             movwf       C1
0047   3000           00182             movlw       b'00000000'
0048   00A6           00183             movwf       C2
0049   3000           00184             movlw       b'00000000'
004A   00A7           00185             movwf       C3
004B   3008           00186             movlw       b'00001000'         ; por d efecto spawnea en la columna 4, fila 4
MPASM 5.87                    SNAKE_GAME.ASM   6-10-2022  14:09:18         PAGE  5


LOC  OBJECT CODE     LINE SOURCE TEXT
  VALUE

004C   00A8           00187             movwf       C4
004D   00B0           00188             movwf       S4
004E   3000           00189             movlw       b'00000000'
004F   00A9           00190             movwf       C5
0050   3000           00191             movlw       b'00000000'
0051   00AA           00192             movwf       C6
0052   3000           00193             movlw       b'00000000'
0053   00AB           00194             movwf       C7
0054   3000           00195             movlw       b'00000000'
0055   00AC           00196             movwf       C8
                      00197             
                      00198             ;indicamos que la columna de inicio es la 4
0056   3008           00199             movlw       b'00001000' 
0057   00B5           00200             movwf       Posind
0058   20D3           00201 here        call        Button          ;verifica si se presiona un botón, y en caso afirmativo que la d
                            ireccion sea válida, si no lo es la corrige 
0059   0836           00202             movf        Posdir, W
005A   3E00           00203             addlw       d'0'
005B   1903           00204             btfsc       STATUS, Z       ; Cuando se presiona un botón la serpiente comienza moverse
005C   2858           00205             goto        here
005D   1410           00206             bsf         T1CON, TMR1ON   ; Start timer counting
005E   2878           00207             goto        Start
                      00208 ;-------------------------------------------------------------------------------
                      00209 ;--------------------------------  Loops de Delays  ----------------------------
                      00210 ;-------------------------------------------------------------------------------
005F   00A3           00211 delay1      movwf       temp4
0060   3064           00212 loopy2      movlw       d'100'      ;multiplos ode 2.5ms
0061   00A2           00213             movwf       temp3
0062   30FA           00214 loopy       movlw       d'250'
0063   00A0           00215             movwf       temp
0064   2865           00216 initloop    goto        $+1         ;2us
0065   2866           00217             goto        $+1         ;2us
0066   2867           00218             goto        $+1         ;2us
0067   0000           00219             nop                     ;1us
0068   0BA0           00220             decfsz      temp, f     ;1us
0069   2864           00221             goto        initloop    ;2us  
006A   0BA2           00222             decfsz      temp3, f
006B   2862           00223             goto        loopy       ;250ms total
006C   0BA3           00224             decfsz      temp4, f
006D   2860           00225             goto        loopy2      ;multiplos de 250ms
006E   0008           00226             return
                      00227             
006F   3064           00228 msdelay     movlw       d'100'
0070   00A0           00229             movwf       temp
0071   2872           00230 loop        goto        $+1         ;2us
0072   2873           00231             goto        $+1         ;2us
0073   2874           00232             goto        $+1         ;2us
0074   0000           00233             nop                     ;1us
0075   0BA0           00234             decfsz      temp, f     ;1us
0076   2871           00235             goto        loop        ;2us  
0077   0008           00236             return          
                      00237 ;-------------------------------------------------------------------------------
                      00238 ;--------------------------------  Main-----------------------------------------
MPASM 5.87                    SNAKE_GAME.ASM   6-10-2022  14:09:18         PAGE  6


LOC  OBJECT CODE     LINE SOURCE TEXT
  VALUE

                      00239 ;-------------------------------------------------------------------------------        
0078   2088           00240 Start       call        Disp
0079   1C3B           00241             btfss       colind, 0
007A   2878           00242             goto        Start
                      00243 ;   GAME OVER
007B   1010           00244             bcf         T1CON, TMR1ON   ; frenar la cuenta del timer
007C   3008           00245             movlw       d'8'
007D   00A4           00246             movwf       temp5
007E   3064           00247 gameover    movlw       d'100'          
007F   00A3           00248             movwf       temp4
0080   2088           00249             call        Disp
0081   0BA3           00250             decfsz      temp4, f
0082   2880           00251             goto        $-2
0083   3001           00252             movlw       d'1'
0084   205F           00253             call        delay1          ;esperar 250ms
0085   0BA4           00254             decfsz      temp5, f
0086   287E           00255             goto        gameover
0087   2805           00256             goto        Init            ;volver a empezar
                      00257 ;-------------------------------------------------------------------------------
                      00258 ;--------------------------------  Ciclo de Display  ---------------------------
                      00259 ;-------------------------------------------------------------------------------                    
0088   0825           00260 Disp        movf        C1, w
0089   20B9           00261             call        PRTLD
008A   1407           00262             bsf         COL1
008B   206F           00263             call        msdelay
008C   1007           00264             bcf         COL1
008D   20D3           00265             call        Button
                      00266             
008E   0826           00267             movf        C2, w
008F   20B9           00268             call        PRTLD
0090   1487           00269             bsf         COL2
0091   206F           00270             call        msdelay
0092   1087           00271             bcf         COL2
0093   20D3           00272             call        Button
                      00273             
0094   0827           00274             movf        C3, w
0095   20B9           00275             call        PRTLD
0096   1507           00276             bsf         COL3
0097   206F           00277             call        msdelay
0098   1107           00278             bcf         COL3
0099   20D3           00279             call        Button
                      00280             
009A   0828           00281             movf        C4, w
009B   20B9           00282             call        PRTLD
009C   1587           00283             bsf         COL4
009D   206F           00284             call        msdelay
009E   1187           00285             bcf         COL4
009F   20D3           00286             call        Button
                      00287             
00A0   0829           00288             movf        C5, w
00A1   20B9           00289             call        PRTLD
00A2   1607           00290             bsf         COL5
00A3   206F           00291             call        msdelay
MPASM 5.87                    SNAKE_GAME.ASM   6-10-2022  14:09:18         PAGE  7


LOC  OBJECT CODE     LINE SOURCE TEXT
  VALUE

00A4   1207           00292             bcf         COL5
00A5   20D3           00293             call        Button
                      00294             
00A6   082A           00295             movf        C6, w
00A7   20B9           00296             call        PRTLD
00A8   1687           00297             bsf         COL6
00A9   206F           00298             call        msdelay
00AA   1287           00299             bcf         COL6
00AB   20D3           00300             call        Button
                      00301             
00AC   082B           00302             movf        C7, w
00AD   20B9           00303             call        PRTLD
00AE   1506           00304             bsf         COL7
00AF   206F           00305             call        msdelay
00B0   1106           00306             bcf         COL7
00B1   20D3           00307             call        Button
                      00308             
00B2   082C           00309             movf        C8, w
00B3   20B9           00310             call        PRTLD
00B4   1586           00311             bsf         COL8
00B5   206F           00312             call        msdelay
00B6   1186           00313             bcf         COL8
00B7   20D3           00314             call        Button
00B8   0008           00315             return
                      00316             
00B9   00A0           00317 PRTLD       movwf       temp
00BA   1408           00318             bsf         ROW1
00BB   1488           00319             bsf         ROW2
00BC   1508           00320             bsf         ROW3
00BD   1588           00321             bsf         ROW4
00BE   1608           00322             bsf         ROW5
00BF   1688           00323             bsf         ROW6
00C0   1708           00324             bsf         ROW7
00C1   1788           00325             bsf         ROW8
00C2   1820           00326             btfsc       temp, 0
00C3   1008           00327             bcf         ROW1
00C4   18A0           00328             btfsc       temp, 1
00C5   1088           00329             bcf         ROW2
00C6   1920           00330             btfsc       temp, 2
00C7   1108           00331             bcf         ROW3
00C8   19A0           00332             btfsc       temp, 3
00C9   1188           00333             bcf         ROW4
00CA   1A20           00334             btfsc       temp, 4
00CB   1208           00335             bcf         ROW5
00CC   1AA0           00336             btfsc       temp, 5
00CD   1288           00337             bcf         ROW6
00CE   1B20           00338             btfsc       temp, 6
00CF   1308           00339             bcf         ROW7
00D0   1BA0           00340             btfsc       temp, 7
00D1   1388           00341             bcf         ROW8
00D2   0008           00342             return
                      00343 ;-------------------------------------------------------------------------------
                      00344 ;--------------------------------  Entrada de Pulsador  ------------------------
MPASM 5.87                    SNAKE_GAME.ASM   6-10-2022  14:09:18         PAGE  8


LOC  OBJECT CODE     LINE SOURCE TEXT
  VALUE

                      00345 ;-------------------------------------------------------------------------------        
00D3   1F86           00346 Button      btfss       UP
00D4   28DC           00347             goto        GO_UP
00D5   1F06           00348             btfss       DOWN
00D6   28E1           00349             goto        GO_DOWN
00D7   1E86           00350             btfss       LEFT
00D8   28E6           00351             goto        GO_LEFT
00D9   1E06           00352             btfss       RIGHT
00DA   28EB           00353             goto        GO_RIGHT
00DB   0008           00354             return          
00DC   18B6           00355 GO_UP       btfsc       Posdir, 1       ;nos aseguramos que el snake no pueda volver sobre si mismo
00DD   28E1           00356             goto        GO_DOWN 
00DE   3001           00357             movlw       b'00000001'
00DF   00B6           00358             movwf       Posdir
00E0   0008           00359             return
00E1   1836           00360 GO_DOWN     btfsc       Posdir, 0       ;nos aseguramos que el snake no pueda volver sobre si mismo
00E2   28DC           00361             goto        GO_UP
00E3   3002           00362             movlw       b'00000010'
00E4   00B6           00363             movwf       Posdir
00E5   0008           00364             return
00E6   19B6           00365 GO_LEFT     btfsc       Posdir, 3       ;nos aseguramos que el snake no pueda volver sobre si mismo
00E7   28EB           00366             goto        GO_RIGHT
00E8   3004           00367             movlw       b'00000100'
00E9   00B6           00368             movwf       Posdir
00EA   0008           00369             return
00EB   1936           00370 GO_RIGHT    btfsc       Posdir, 2       ;nos aseguramos que el snake no pueda volver sobre si mismo
00EC   28E6           00371             goto        GO_LEFT
00ED   3008           00372             movlw       b'00001000'
00EE   00B6           00373             movwf       Posdir
00EF   0008           00374             return          
                      00375 ;-------------------------------------------------------------------------------
                      00376 ;-----------------------------  Programa de Interrupción  -----------------------
                      00377 ;-------------------------------------------------------------------------------            
00F0                  00378 ISR         
00F0   1283 1303      00379             banksel     PIR1
00F2   180C           00380             btfsc       PIR1, TMR1IF
00F3   28FC           00381             goto        TMR1_INT
00F4   1A8C           00382             btfsc       PIR1, RCIF
00F5   28F7           00383             goto        RX_INT
00F6   29B3           00384             goto        END_ISR
                      00385             
00F7                  00386 RX_INT      ; el flag se baja automaticamente luego de leer 
00F7   1283 1303      00387             banksel             RCREG
00F9   081A           00388             movf                RCREG, W
00FA   00B6           00389             movwf               Posdir  
00FB   29B3           00390             goto                END_ISR
00FC                  00391 TMR1_INT
00FC   100C           00392             bcf         PIR1, TMR1IF    ;limpiamos flag del timer1
00FD   00B7           00393             movwf       w_save          ;guardamos contexto
00FE   0803           00394             movf        STATUS, w
00FF   0183           00395             clrf        STATUS
0100   00B8           00396             movwf       status_save
0101   080A           00397             movf        PCLATH, w
MPASM 5.87                    SNAKE_GAME.ASM   6-10-2022  14:09:18         PAGE  9


LOC  OBJECT CODE     LINE SOURCE TEXT
  VALUE

0102   00B9           00398             movwf       pclath_save     
                      00399             
0103   1010           00400             bcf         T1CON, TMR1ON   ; Detenemos el timer
0104   083D           00401             movf        T1H, w
0105   008F           00402             movwf       TMR1H
0106   30DB           00403             movlw       b'11011011'
0107   008E           00404             movwf       TMR1L           ; Cargamos el timer para que interrumpa cada 0,5 s
0108   1410           00405             bsf         T1CON, TMR1ON   ; Lanzamos el timer nuevamente
                      00406             
0109   1BBC           00407             btfsc       rattmr, 7       ; El bit 7 inidica si hay una rata todavía no comida en el table
                            ro
010A   2910           00408             goto        skip            ;saltear, si ya hay una rat no se incrementa el contador de 10 i
                            nterrupciones del timer1
010B   0ABC           00409             incf        rattmr, f       ;si no hay rata en la tabla, incrementamos el contador de 10 int
                            errupciones del timer1
010C   083C           00410             movf        rattmr, w       ; y cuando llega a 10 colocamos una nueva rata en la tabla
010D   3A0A           00411             xorlw       d'10'
010E   1903           00412             btfsc       STATUS, Z
010F   2281           00413             call        Rat
0110                  00414 skip        ;averiguamos en que columna se encotnraba el head del snake al momento de la interrupción 
0110   1BB5           00415             btfsc       Posind, 7   ; Columna 8?
0111   293A           00416             goto        Col8
0112   1B35           00417             btfsc       Posind, 6   ; Columna 7?
0113   2936           00418             goto        Col7
0114   1AB5           00419             btfsc       Posind, 5   ; Columna 6?
0115   2932           00420             goto        Col6
0116   1A35           00421             btfsc       Posind, 4   ; Columna 5?
0117   292E           00422             goto        Col5
0118   19B5           00423             btfsc       Posind, 3   ; Columna 4?
0119   292A           00424             goto        Col4
011A   1935           00425             btfsc       Posind, 2   ; Columna 3?
011B   2926           00426             goto        Col3
011C   18B5           00427             btfsc       Posind, 1   ; Columna 2?
011D   2922           00428             goto        Col2
                      00429                                     ; Entonces la columna 1    
011E   082D           00430             movf        S1, w
011F   217C           00431             call        Checkdir
0120   213E           00432             call        Placecont
0121   29A1           00433             goto        LoadDisp
0122   082E           00434 Col2        movf        S2, w
0123   217C           00435             call        Checkdir
0124   213E           00436             call        Placecont
0125   29A1           00437             goto        LoadDisp
0126   082F           00438 Col3        movf        S3, w
0127   217C           00439             call        Checkdir
0128   213E           00440             call        Placecont
0129   29A1           00441             goto        LoadDisp
012A   0830           00442 Col4        movf        S4, w
012B   217C           00443             call        Checkdir
012C   213E           00444             call        Placecont
012D   29A1           00445             goto        LoadDisp            
012E   0831           00446 Col5        movf        S5, w
012F   217C           00447             call        Checkdir
MPASM 5.87                    SNAKE_GAME.ASM   6-10-2022  14:09:18         PAGE 10


LOC  OBJECT CODE     LINE SOURCE TEXT
  VALUE

0130   213E           00448             call        Placecont
0131   29A1           00449             goto        LoadDisp
0132   0832           00450 Col6        movf        S6, w
0133   217C           00451             call        Checkdir
0134   213E           00452             call        Placecont
0135   29A1           00453             goto        LoadDisp
0136   0833           00454 Col7        movf        S7, w
0137   217C           00455             call        Checkdir
0138   213E           00456             call        Placecont
0139   29A1           00457             goto        LoadDisp
013A   0834           00458 Col8        movf        S8, w
013B   217C           00459             call        Checkdir
013C   213E           00460             call        Placecont
013D   29A1           00461             goto        LoadDisp
                      00462                                             
013E   01B4           00463 Placecont   clrf        S8
013F   01B3           00464             clrf        S7
0140   01B2           00465             clrf        S6
0141   01B1           00466             clrf        S5
0142   01B0           00467             clrf        S4
0143   01AF           00468             clrf        S3
0144   01AE           00469             clrf        S2
0145   01AD           00470             clrf        S1
                      00471             
0146   1BB5           00472             btfsc       Posind, 7   ; Debemos cargar registro de la columna 8?
0147   2959           00473             goto        PlacA
0148   1B35           00474             btfsc       Posind, 6   ; Debemos cargar  registro de la columna 7?
0149   295E           00475             goto        PlacB
014A   1AB5           00476             btfsc       Posind, 5   ; Debemos cargar registro de la columna 6?
014B   2963           00477             goto        PlacC
014C   1A35           00478             btfsc       Posind, 4   ; Debemos cargar  registro de la columna 5?
014D   2968           00479             goto        PlacD
014E   19B5           00480             btfsc       Posind, 3   ; Debemos cargar registro de la columna 4?
014F   296D           00481             goto        PlacE
0150   1935           00482             btfsc       Posind, 2   ; Debemos cargar registro de la columna 3?
0151   2972           00483             goto        PlacF
0152   18B5           00484             btfsc       Posind, 1   ; Debemos cargar registro de la columna 2?
0153   2977           00485             goto        PlacG            
0154   00AD           00486             movwf       S1          ; Debemos cargar registro de la columna 1
0155   00A2           00487             movwf       temp3
0156   0103           00488             clrw
0157   2267           00489             call        plcdot      ; El registro a cargar mapea con la columna 1, ahora averiguamos con
                             que fila mapea
0158   0008           00490             return
                      00491             
0159   00B4           00492 PlacA       movwf       S8
015A   00A2           00493             movwf       temp3       ; guardamos el offset de la columna     
015B   3007           00494             movlw       d'7'        ; Indicamos la columna en la que estamos
015C   2267           00495             call        plcdot      ; El registro a cargar mapea con la columna 8, ahora averiguamos con
                             que fila mapea
015D   0008           00496             return      
015E   00B3           00497 PlacB       movwf       S7
015F   00A2           00498             movwf       temp3       ; guardamos el offset de la columna             
MPASM 5.87                    SNAKE_GAME.ASM   6-10-2022  14:09:18         PAGE 11


LOC  OBJECT CODE     LINE SOURCE TEXT
  VALUE

0160   3006           00499             movlw       d'6'        ; Indicamos la columna en la que estamos
0161   2267           00500             call        plcdot      ; El registro a cargar mapea con la columna 7, ahora averiguamos con
                             que fila mapea
0162   0008           00501             return      
0163   00B2           00502 PlacC       movwf       S6
0164   00A2           00503             movwf       temp3       ; guardamos el offset de la columna             
0165   3005           00504             movlw       d'5'        ; Indicamos la columna en la que estamos
0166   2267           00505             call        plcdot      ; El registro a cargar mapea con la columna 6, ahora averiguamos con
                             que fila mapea
0167   0008           00506             return      
0168   00B1           00507 PlacD       movwf       S5
0169   00A2           00508             movwf       temp3       ; guardamos el offset de la columna             
016A   3004           00509             movlw       d'4'        ; Indicamos la columna en la que estamos
016B   2267           00510             call        plcdot      ; El registro a cargar mapea con la columna 5, ahora averiguamos con
                             que fila mapea
016C   0008           00511             return          
016D   00B0           00512 PlacE       movwf       S4
016E   00A2           00513             movwf       temp3       ; guardamos el offset de la columna  
016F   3003           00514             movlw       d'3'        ; Indicamos la columna en la que estamos
0170   2267           00515             call        plcdot      ; El registro a cargar mapea con la columna 4, ahora averiguamos con
                             que fila mapea
0171   0008           00516             return                                              
0172   00AF           00517 PlacF       movwf       S3
0173   00A2           00518             movwf       temp3       ; guardamos el offset de la columna             
0174   3002           00519             movlw       d'2'        ; Indicamos la columna en la que estamos
0175   2267           00520             call        plcdot      ; El registro a cargar mapea con la columna 3, ahora averiguamos con
                             que fila mapea
0176   0008           00521             return
0177   00AE           00522 PlacG       movwf       S2
0178   00A2           00523             movwf       temp3       ; guardamos el offset de la columna  
0179   3001           00524             movlw       d'1'        ; Indicamos la columna en la que estamos
017A   2267           00525             call        plcdot      ; El registro a cargar mapea con la columna 2, ahora averiguamos con
                             que fila mapea
017B   0008           00526             return          
                      00527             
017C   1836           00528 Checkdir    btfsc       Posdir, 0   ; se desplaza hacia arriba?
017D   2983           00529             goto        DirectU
017E   18B6           00530             btfsc       Posdir, 1   ; se desplaza hacia abajo?
017F   2989           00531             goto        DirectD
0180   1936           00532             btfsc       Posdir, 2   ; se desplaza a la izquierda?
0181   2992           00533             goto        DirectL
0182   2998           00534             goto        DirectR     ;entonces se desplaza a la derecha
                      00535             
0183   00A4           00536 DirectU     movwf       temp5
0184   0CA4           00537             rrf         temp5, f    ; verifiamos si la columna activa es la del extremo superior
0185   1803           00538             btfsc       STATUS, C
0186   17A4           00539             bsf         temp5, 7
0187   0824           00540             movf        temp5, w
0188   0008           00541             return
                      00542                                         
0189   00A4           00543 DirectD     movwf       temp5
018A   0DA4           00544             rlf         temp5, f    ; verifiamos si la columna activa es la del extremo inferior
018B   1803           00545             btfsc       STATUS, C
MPASM 5.87                    SNAKE_GAME.ASM   6-10-2022  14:09:18         PAGE 12


LOC  OBJECT CODE     LINE SOURCE TEXT
  VALUE

018C   218F           00546             call        DirectDa
018D   0824           00547             movf        temp5, w
018E   0008           00548             return
018F   01A4           00549 DirectDa    clrf        temp5
0190   1424           00550             bsf         temp5, 0
0191   0008           00551             return
                      00552                     
0192   00A4           00553 DirectL     movwf       temp5
0193   0CB5           00554             rrf         Posind, f
0194   1803           00555             btfsc       STATUS, C   ; verifiamos si la columna activa es la del extremo izquierdo
0195   17B5           00556             bsf         Posind, 7
0196   0824           00557             movf        temp5, w
0197   0008           00558             return
                      00559 
0198   00A4           00560 DirectR     movwf       temp5
0199   0DB5           00561             rlf         Posind, f
019A   1803           00562             btfsc       STATUS, C  ; verifiamos si la columna activa es la del extremo derecho
019B   219E           00563             call        DirectRa
019C   0824           00564             movf        temp5, w
019D   0008           00565             return
019E   01B5           00566 DirectRa    clrf        Posind
019F   1435           00567             bsf         Posind, 0
01A0   0008           00568             return          
                      00569                     
01A1   21BA           00570 LoadDisp    call        Decdot
01A2   082D           00571             movf        S1, w
01A3   04A5           00572             iorwf       C1, f
01A4   082E           00573             movf        S2, w
01A5   04A6           00574             iorwf       C2, f
01A6   082F           00575             movf        S3, w
01A7   04A7           00576             iorwf       C3, f
01A8   0830           00577             movf        S4, w
01A9   04A8           00578             iorwf       C4, f
01AA   0831           00579             movf        S5, w
01AB   04A9           00580             iorwf       C5, f 
01AC   0832           00581             movf        S6, w
01AD   04AA           00582             iorwf       C6, f
01AE   0833           00583             movf        S7, w
01AF   04AB           00584             iorwf       C7, f
01B0   0834           00585             movf        S8, w
01B1   04AC           00586             iorwf       C8, f
01B2   29B3           00587             goto        END_ISR
                      00588             
01B3                  00589 END_ISR
01B3   0839           00590             movf        pclath_save, w
01B4   008A           00591             movwf       PCLATH
01B5   0838           00592             movf        status_save, w
01B6   0083           00593             movwf       STATUS
01B7   0EB7           00594             swapf       w_save, f
01B8   0E37           00595             swapf       w_save, w
01B9   0009           00596             retfie
                      00597 ;-------------------------------------------------------------------------------
                      00598 ;----------------------------  Contador de decremento de puntos  --------------- ; para el decremento de
MPASM 5.87                    SNAKE_GAME.ASM   6-10-2022  14:09:18         PAGE 13


LOC  OBJECT CODE     LINE SOURCE TEXT
  VALUE

                             los registros cargados previamente por el head del snake
                      00599 ;-------------------------------------------------------------------------------            
01BA   30A0           00600 Decdot      movlw       d'160'
01BB   00A1           00601             movwf       temp2
01BC   01A2           00602             clrf        temp3
01BD   0821           00603 dotdecloop  movf        temp2, w
01BE   0084           00604             movwf       FSR
01BF   3001           00605             movlw       d'1'
01C0   0280           00606             subwf       INDF, f
01C1   1C03           00607             btfss       STATUS, C
01C2   0180           00608             clrf        INDF
01C3   0800           00609             movf        INDF, w
01C4   3E00           00610             addlw       d'0'
01C5   1903           00611             btfsc       STATUS, Z  
01C6   21DE           00612             call        delum           ; Apagamos el led si la ram está vacía
01C7   0AA2           00613             incf        temp3, f
01C8   0AA2           00614             incf        temp3, f
01C9   0AA1           00615             incf        temp2, f
01CA   0821           00616             movf        temp2, w
01CB   3AE0           00617             xorlw       d'224'          ;este registro es el limite de nuestra matriz
01CC   1D03           00618             btfss       STATUS, Z
01CD   29BD           00619             goto        dotdecloop
01CE   0823           00620             movf        temp4, w        ;apunto a la dirección del registro que se debe cargar
01CF   0084           00621             movwf       FSR
01D0   3000           00622             movlw       d'0'
01D1   0700           00623             addwf       INDF, w         ;pregunto si el registro que se debe cargar esta vacío 
01D2   1D03           00624             btfss       STATUS, Z       
01D3   21D7           00625             call        colrat          ;si no esta
01D4   083A           00626             movf        snake, w
01D5   0080           00627             movwf       INDF
01D6   0008           00628             return
01D7   1B80           00629 colrat      btfsc       INDF, 7         ; El bit 7 indica una rata
01D8   29DB           00630             goto        ratcl
01D9   143B           00631             bsf         colind, 0
01DA   0008           00632             return
01DB   01BC           00633 ratcl       clrf        rattmr
01DC   0ABA           00634             incf        snake, f
01DD   0008           00635             return          
                      00636 
01DE   30E7           00637 delum       movlw       LOW table      ; Apaga el led elegido
01DF   0722           00638             addwf       temp3,  w     
01E0   3001           00639             movlw       HIGH table    
01E1   1803           00640             btfsc       STATUS, C       
01E2   3E01           00641             addlw       1              
01E3   008A           00642             movwf       PCLATH          
01E4   30E7           00643             movlw       LOW table     
01E5   0722           00644             addwf       temp3, w       
01E6   0082           00645             movwf       PCL                         
01E7   1025           00646 table       bcf         C1, 0   
01E8   0008           00647             return
01E9   1026           00648             bcf         C2, 0   
01EA   0008           00649             return
01EB   1027           00650             bcf         C3, 0   
MPASM 5.87                    SNAKE_GAME.ASM   6-10-2022  14:09:18         PAGE 14


LOC  OBJECT CODE     LINE SOURCE TEXT
  VALUE

01EC   0008           00651             return
01ED   1028           00652             bcf         C4, 0   
01EE   0008           00653             return
01EF   1029           00654             bcf         C5, 0   
01F0   0008           00655             return
01F1   102A           00656             bcf         C6, 0   
01F2   0008           00657             return
01F3   102B           00658             bcf         C7, 0   
01F4   0008           00659             return
01F5   102C           00660             bcf         C8, 0   
01F6   0008           00661             return
01F7   10A5           00662             bcf         C1, 1   
01F8   0008           00663             return
01F9   10A6           00664             bcf         C2, 1
01FA   0008           00665             return
01FB   10A7           00666             bcf         C3, 1   
01FC   0008           00667             return
01FD   10A8           00668             bcf         C4, 1   
01FE   0008           00669             return
01FF   10A9           00670             bcf         C5, 1   
0200   0008           00671             return
0201   10AA           00672             bcf         C6, 1   
0202   0008           00673             return
0203   10AB           00674             bcf         C7, 1   
0204   0008           00675             return
0205   10AC           00676             bcf         C8, 1   
0206   0008           00677             return
0207   1125           00678             bcf         C1, 2   
0208   0008           00679             return
0209   1126           00680             bcf         C2, 2   
020A   0008           00681             return
020B   1127           00682             bcf         C3, 2   
020C   0008           00683             return
020D   1128           00684             bcf         C4, 2   
020E   0008           00685             return
020F   1129           00686             bcf         C5, 2   
0210   0008           00687             return
0211   112A           00688             bcf         C6, 2
0212   0008           00689             return
0213   112B           00690             bcf         C7, 2   
0214   0008           00691             return
0215   112C           00692             bcf         C8, 2   
0216   0008           00693             return
0217   11A5           00694             bcf         C1, 3   
0218   0008           00695             return
0219   11A6           00696             bcf         C2, 3   
021A   0008           00697             return
021B   11A7           00698             bcf         C3, 3   
021C   0008           00699             return
021D   11A8           00700             bcf         C4, 3   
021E   0008           00701             return
021F   11A9           00702             bcf         C5, 3   
0220   0008           00703             return
MPASM 5.87                    SNAKE_GAME.ASM   6-10-2022  14:09:18         PAGE 15


LOC  OBJECT CODE     LINE SOURCE TEXT
  VALUE

0221   11AA           00704             bcf         C6, 3   
0222   0008           00705             return
0223   11AB           00706             bcf         C7, 3   
0224   0008           00707             return
0225   11AC           00708             bcf         C8, 3   
0226   0008           00709             return
0227   1225           00710             bcf         C1, 4   
0228   0008           00711             return
0229   1226           00712             bcf         C2, 4   
022A   0008           00713             return
022B   1227           00714             bcf         C3, 4
022C   0008           00715             return
022D   1228           00716             bcf         C4, 4
022E   0008           00717             return
022F   1229           00718             bcf         C5, 4
0230   0008           00719             return
0231   122A           00720             bcf         C6, 4   
0232   0008           00721             return
0233   122B           00722             bcf         C7, 4
0234   0008           00723             return
0235   122C           00724             bcf         C8, 4
0236   0008           00725             return
0237   12A5           00726             bcf         C1, 5   
0238   0008           00727             return
0239   12A6           00728             bcf         C2, 5
023A   0008           00729             return
023B   12A7           00730             bcf         C3, 5   
023C   0008           00731             return
023D   12A8           00732             bcf         C4, 5   
023E   0008           00733             return
023F   12A9           00734             bcf         C5, 5   
0240   0008           00735             return
0241   12AA           00736             bcf         C6, 5   
0242   0008           00737             return
0243   12AB           00738             bcf         C7, 5   
0244   0008           00739             return
0245   12AC           00740             bcf         C8, 5   
0246   0008           00741             return
0247   1325           00742             bcf         C1, 6   
0248   0008           00743             return
0249   1326           00744             bcf         C2, 6   
024A   0008           00745             return
024B   1327           00746             bcf         C3, 6   
024C   0008           00747             return
024D   1328           00748             bcf         C4, 6   
024E   0008           00749             return
024F   1329           00750             bcf         C5, 6   
0250   0008           00751             return
0251   132A           00752             bcf         C6, 6   
0252   0008           00753             return
0253   132B           00754             bcf         C7, 6   
0254   0008           00755             return
0255   132C           00756             bcf         C8, 6   
MPASM 5.87                    SNAKE_GAME.ASM   6-10-2022  14:09:18         PAGE 16


LOC  OBJECT CODE     LINE SOURCE TEXT
  VALUE

0256   0008           00757             return
0257   13A5           00758             bcf         C1, 7   
0258   0008           00759             return
0259   13A6           00760             bcf         C2, 7   
025A   0008           00761             return
025B   13A7           00762             bcf         C3, 7   
025C   0008           00763             return
025D   13A8           00764             bcf         C4, 7   
025E   0008           00765             return
025F   13A9           00766             bcf         C5, 7   
0260   0008           00767             return
0261   13AA           00768             bcf         C6, 7   
0262   0008           00769             return
0263   13AB           00770             bcf         C7, 7   
0264   0008           00771             return
0265   13AC           00772             bcf         C8, 7   
0266   0008           00773             return
                      00774 ;-------------------------------------------------------------------------------
                      00775 ;----------------------------  Incremento del contador de "puntos"  ------------
                      00776 ;-------------------------------------------------------------------------------            
0267   3EA0           00777 plcdot      addlw       d'160'      ;A0         ; El registro a cargar mapea con la fila 1
0268   1BA2           00778             btfsc       temp3, 7    ;fila 8?
0269   3E38           00779             addlw       d'56'       ;D8         ; El registro a cargar mapea con la fila 8
026A   1B22           00780             btfsc       temp3, 6    ;fila 7?
026B   3E30           00781             addlw       d'48'       ;D0         ; El registro a cargar mapea con la fila 7
026C   1AA2           00782             btfsc       temp3, 5    ;fila 6?
026D   3E28           00783             addlw       d'40'       ;C8         ; El registro a cargar mapea con la fila 6
026E   1A22           00784             btfsc       temp3, 4    ;fila 5?
026F   3E20           00785             addlw       d'32'       ;C8         ; El registro a cargar mapea con la fila 5
0270   19A2           00786             btfsc       temp3, 3    ;fila 4?
0271   3E18           00787             addlw       d'24'       ;B8         ; El registro a cargar mapea con la fila 4
0272   1922           00788             btfsc       temp3, 2    ;fila 3?
0273   3E10           00789             addlw       d'16'       ;B0         ; El registro a cargar mapea con la fila 3
0274   18A2           00790             btfsc       temp3, 1    ;fila 2?
0275   3E08           00791             addlw       d'8'        ;A8         ; El registro a cargar mapea con la fila 2
0276   00A3           00792             movwf       temp4                   ; temp4 contiene ahora el numero de registro que debe ca
                            rgarse con el tamaño del snake
0277   30FF           00793 Ilum        movlw       d'255'
0278   00A5           00794             movwf       C1
0279   00A6           00795             movwf       C2
027A   00A7           00796             movwf       C3
027B   00A8           00797             movwf       C4
027C   00A9           00798             movwf       C5
027D   00AA           00799             movwf       C6
027E   00AB           00800             movwf       C7
027F   00AC           00801             movwf       C8
0280   0008           00802             return
                      00803 ;-------------------------------------------------------------------------------
                      00804 ;---------------------------  Generación aleatorio de Rata  --------------------
                      00805 ;-------------------------------------------------------------------------------            
0281   3080           00806 Rat         movlw       b'10000000'
0282   00BC           00807             movwf       rattmr          ;limpiamos la cuenta de 10 interrupciones del timer e indicamos 
                            que hay una rata en el tablero
MPASM 5.87                    SNAKE_GAME.ASM   6-10-2022  14:09:18         PAGE 17


LOC  OBJECT CODE     LINE SOURCE TEXT
  VALUE

0283   2297           00808             call        Random          ; Generamos un numero "aleatorio" en base al cual elegimos en qu
                            e registro colocar la rata 
0284   3E9F           00809             addlw       d'159'          
0285   0084           00810             movwf       FSR
0286   0A84           00811 notclr      incf        FSR, f
0287   0800           00812             movf        INDF, w
0288   3E00           00813             addlw       d'0'
0289   1903           00814             btfsc       STATUS, Z
028A   2A92           00815             goto        addrat
028B   0804           00816             movf        FSR, w
028C   3E21           00817             addlw       d'33'           ;aseguramos que no sea mayor a 223
028D   1C03           00818             btfss       STATUS, C
028E   2A86           00819             goto        notclr          ; Elegimos otro registro, porque este no esta limpio
028F   309F           00820             movlw       d'159'
0290   0084           00821             movwf       FSR
0291   2A86           00822             goto        notclr          ; Location not clear, try again.
                      00823             
0292   30FF           00824 addrat      movlw       d'255'          ; Cargamos al maximo el registro que habia quedado apuntado por 
                            el FSR, el MSB indica
0293   0080           00825             movwf       INDF            ; si existe una colisión con una rata para el registro en cuesti
                            ón 
0294   3007           00826             movlw       d'7'            ; Aumentamos la velocidad de la serpiente, (hacemos que timer1 t
                            emporize menos)   
0295   07BD           00827             addwf       T1H, f                   
0296   0008           00828             return                      
                      00829 ;-------------------------------------------------------------------------------
                      00830 ;----------------------------  Generación de Número Random  --------------------
                      00831 ;-------------------------------------------------------------------------------            
0297   083A           00832 Random      movf        snake, w        ;tenemos en cuenta el tamaño del snake como varibale que influye
                             en el numero "random" seleccionado
0298   00A2           00833             movwf       temp3
0299   30A2           00834             movlw       LOW Rantbl      ;tomamos la parte baja de la dirección de la tabla
029A   0722           00835             addwf       temp3,  w     
029B   3002           00836             movlw       HIGH Rantbl    ;tomamos la parte alta de la dirección de la tabla
029C   1803           00837             btfsc       STATUS, C       
029D   3E01           00838             addlw       1              
029E   008A           00839             movwf       PCLATH       ;modificamos el PCLATH para modificar el PC   (parte alta)
029F   30A2           00840             movlw       LOW Rantbl     
02A0   0722           00841             addwf       temp3, w       
02A1   0082           00842             movwf       PCL             ;modificamos el PCL para modificar el PC            
02A2   3402           00843 Rantbl      retlw       d'2'
02A3   3431           00844             retlw       d'49'
02A4   3407           00845             retlw       d'7'
02A5   343E           00846             retlw       d'62'
02A6   340B           00847             retlw       d'11'
02A7   342A           00848             retlw       d'42'
02A8   3432           00849             retlw       d'50'
02A9   3425           00850             retlw       d'37'
02AA   3436           00851             retlw       d'54'
02AB   342F           00852             retlw       d'47'
02AC   3403           00853             retlw       d'3'
02AD   343B           00854             retlw       d'59'
02AE   343D           00855             retlw       d'61'
MPASM 5.87                    SNAKE_GAME.ASM   6-10-2022  14:09:18         PAGE 18


LOC  OBJECT CODE     LINE SOURCE TEXT
  VALUE

02AF   3415           00856             retlw       d'21'
02B0   3406           00857             retlw       d'6'
02B1   3428           00858             retlw       d'40'
02B2   3413           00859             retlw       d'19'
02B3   3422           00860             retlw       d'34'
02B4   340A           00861             retlw       d'10'
02B5   3408           00862             retlw       d'8'
02B6   3429           00863             retlw       d'41'
02B7   343A           00864             retlw       d'58'
02B8   3412           00865             retlw       d'18'
02B9   342E           00866             retlw       d'46'
02BA   3435           00867             retlw       d'53'
02BB   341A           00868             retlw       d'26'
02BC   3433           00869             retlw       d'51'
02BD   3419           00870             retlw       d'25'
02BE   3421           00871             retlw       d'33'
02BF   3401           00872             retlw       d'1'
02C0   342D           00873             retlw       d'45'
02C1   3409           00874             retlw       d'9'
02C2   3400           00875             retlw       d'0'
02C3   3439           00876             retlw       d'57'
02C4   3423           00877             retlw       d'35'
02C5   3420           00878             retlw       d'32'
02C6   3434           00879             retlw       d'52'
02C7   3411           00880             retlw       d'17'
02C8   3404           00881             retlw       d'4'
02C9   3416           00882             retlw       d'22'
02CA   342B           00883             retlw       d'43'
02CB   3437           00884             retlw       d'55'
02CC   3405           00885             retlw       d'5'
02CD   340C           00886             retlw       d'12'
02CE   343C           00887             retlw       d'60'
02CF   3410           00888             retlw       d'16'
02D0   3414           00889             retlw       d'20'
02D1   341E           00890             retlw       d'30'
02D2   3427           00891             retlw       d'39'
02D3   343F           00892             retlw       d'63'
02D4   3418           00893             retlw       d'24'
02D5   341F           00894             retlw       d'31'
02D6   3438           00895             retlw       d'56'
02D7   3424           00896             retlw       d'36'
02D8   3430           00897             retlw       d'48'
02D9   340D           00898             retlw       d'13'
02DA   341B           00899             retlw       d'27'
02DB   340F           00900             retlw       d'15'
02DC   3417           00901             retlw       d'23'
02DD   3426           00902             retlw       d'38'
02DE   342C           00903             retlw       d'44'
02DF   341C           00904             retlw       d'28'
02E0   340E           00905             retlw       d'14'
02E1   341D           00906             retlw       d'29'
                      00907         end
MPASM 5.87                    SNAKE_GAME.ASM   6-10-2022  14:09:18         PAGE 19


SYMBOL TABLE
  LABEL                             VALUE 

ABDEN                             00000000
ABDOVF                            00000007
ACKDT                             00000005
ACKEN                             00000004
ACKSTAT                           00000006
ADCON0                            0000001F
ADCON1                            0000009F
ADCS0                             00000006
ADCS1                             00000007
ADDEN                             00000003
ADFM                              00000007
ADIE                              00000006
ADIF                              00000006
ADON                              00000000
ADRESH                            0000001E
ADRESL                            0000009E
ANS0                              00000000
ANS1                              00000001
ANS10                             00000002
ANS11                             00000003
ANS12                             00000004
ANS13                             00000005
ANS2                              00000002
ANS3                              00000003
ANS4                              00000004
ANS5                              00000005
ANS6                              00000006
ANS7                              00000007
ANS8                              00000000
ANS9                              00000001
ANSEL                             00000188
ANSELH                            00000189
BAUDCTL                           00000187
BCLIE                             00000003
BCLIF                             00000003
BF                                00000000
BRG0                              00000000
BRG1                              00000001
BRG10                             00000002
BRG11                             00000003
BRG12                             00000004
BRG13                             00000005
BRG14                             00000006
BRG15                             00000007
BRG16                             00000003
BRG2                              00000002
BRG3                              00000003
BRG4                              00000004
BRG5                              00000005
BRG6                              00000006
BRG7                              00000007
BRG8                              00000000
BRG9                              00000001
MPASM 5.87                    SNAKE_GAME.ASM   6-10-2022  14:09:18         PAGE 20


SYMBOL TABLE
  LABEL                             VALUE 

BRGH                              00000002
Button                            000000D3
C                                 00000000
C1                                00000025
C1CH0                             00000000
C1CH1                             00000001
C1IE                              00000005
C1IF                              00000005
C1OE                              00000005
C1ON                              00000007
C1OUT                             00000006
C1POL                             00000004
C1R                               00000002
C1RSEL                            00000005
C1SEN                             00000005
C2                                00000026
C2CH0                             00000000
C2CH1                             00000001
C2IE                              00000006
C2IF                              00000006
C2OE                              00000005
C2ON                              00000007
C2OUT                             00000006
C2POL                             00000004
C2R                               00000002
C2REN                             00000004
C2RSEL                            00000004
C2SYNC                            00000000
C3                                00000027
C4                                00000028
C5                                00000029
C6                                0000002A
C7                                0000002B
C8                                0000002C
CCP1CON                           00000017
CCP1IE                            00000002
CCP1IF                            00000002
CCP1M0                            00000000
CCP1M1                            00000001
CCP1M2                            00000002
CCP1M3                            00000003
CCP1X                             00000005
CCP1Y                             00000004
CCP2CON                           0000001D
CCP2IE                            00000000
CCP2IF                            00000000
CCP2M0                            00000000
CCP2M1                            00000001
CCP2M2                            00000002
CCP2M3                            00000003
CCP2X                             00000005
CCP2Y                             00000004
CCPR1                             00000015
MPASM 5.87                    SNAKE_GAME.ASM   6-10-2022  14:09:18         PAGE 21


SYMBOL TABLE
  LABEL                             VALUE 

CCPR1H                            00000016
CCPR1L                            00000015
CCPR2                             0000001B
CCPR2H                            0000001C
CCPR2L                            0000001B
CHS0                              00000002
CHS1                              00000003
CHS2                              00000004
CHS3                              00000005
CKE                               00000006
CKP                               00000004
CM1CON0                           00000107
CM2CON0                           00000108
CM2CON1                           00000109
COL1                              PORTC, RC0
COL2                              PORTC, RC1
COL3                              PORTC, RC2
COL4                              PORTC, RC3
COL5                              PORTC, RC4
COL6                              PORTC, RC5
COL7                              PORTB, RB2
COL8                              PORTB, RB3
CREN                              00000004
CSRC                              00000007
Checkdir                          0000017C
Col2                              00000122
Col3                              00000126
Col4                              0000012A
Col5                              0000012E
Col6                              00000132
Col7                              00000136
Col8                              0000013A
D                                 00000005
DATA_ADDRESS                      00000005
DC                                00000001
DC1B0                             00000004
DC1B1                             00000005
DC2B0                             00000004
DC2B1                             00000005
DOWN                              PORTB, RB6
D_A                               00000005
D_NOT_A                           00000005
Decdot                            000001BA
DirectD                           00000189
DirectDa                          0000018F
DirectL                           00000192
DirectR                           00000198
DirectRa                          0000019E
DirectU                           00000183
Disp                              00000088
ECCPAS                            0000009C
ECCPAS0                           00000004
ECCPAS1                           00000005
MPASM 5.87                    SNAKE_GAME.ASM   6-10-2022  14:09:18         PAGE 22


SYMBOL TABLE
  LABEL                             VALUE 

ECCPAS2                           00000006
ECCPASE                           00000007
EEADR                             0000010D
EEADRH                            0000010F
EECON1                            0000018C
EECON2                            0000018D
EEDAT                             0000010C
EEDATA                            0000010C
EEDATH                            0000010E
EEIE                              00000004
EEIF                              00000004
EEPGD                             00000007
END_ISR                           000001B3
F                                 00000001
FERR                              00000002
FSR                               00000004
FVREN                             00000000
GCEN                              00000007
GIE                               00000007
GO                                00000001
GO_DONE                           00000001
GO_DOWN                           000000E1
GO_LEFT                           000000E6
GO_NOT_DONE                       00000001
GO_RIGHT                          000000EB
GO_UP                             000000DC
HTS                               00000002
I2C_DATA                          00000005
I2C_READ                          00000002
I2C_START                         00000003
I2C_STOP                          00000004
INDF                              00000000
INTCON                            0000000B
INTE                              00000004
INTEDG                            00000006
INTF                              00000001
IOCB                              00000096
IOCB0                             00000000
IOCB1                             00000001
IOCB2                             00000002
IOCB3                             00000003
IOCB4                             00000004
IOCB5                             00000005
IOCB6                             00000006
IOCB7                             00000007
IRCF0                             00000004
IRCF1                             00000005
IRCF2                             00000006
IRP                               00000007
ISR                               000000F0
Ilum                              00000277
Init                              00000005
LEFT                              PORTB, RB5
MPASM 5.87                    SNAKE_GAME.ASM   6-10-2022  14:09:18         PAGE 23


SYMBOL TABLE
  LABEL                             VALUE 

LTS                               00000001
LoadDisp                          000001A1
MC1OUT                            00000007
MC2OUT                            00000006
MSK                               00000093
MSK0                              00000000
MSK1                              00000001
MSK2                              00000002
MSK3                              00000003
MSK4                              00000004
MSK5                              00000005
MSK6                              00000006
MSK7                              00000007
NOT_A                             00000005
NOT_ADDRESS                       00000005
NOT_BO                            00000000
NOT_BOR                           00000000
NOT_DONE                          00000001
NOT_PD                            00000003
NOT_POR                           00000001
NOT_RBPU                          00000007
NOT_RC8                           00000006
NOT_T1SYNC                        00000002
NOT_TO                            00000004
NOT_TX8                           00000006
NOT_W                             00000002
NOT_WRITE                         00000002
OERR                              00000001
OPTION_REG                        00000081
OSCCON                            0000008F
OSCTUNE                           00000090
OSFIE                             00000007
OSFIF                             00000007
OSTS                              00000003
P                                 00000004
P1M0                              00000006
P1M1                              00000007
PCL                               00000002
PCLATH                            0000000A
PCON                              0000008E
PDC0                              00000000
PDC1                              00000001
PDC2                              00000002
PDC3                              00000003
PDC4                              00000004
PDC5                              00000005
PDC6                              00000006
PEIE                              00000006
PEN                               00000002
PIE1                              0000008C
PIE2                              0000008D
PIR1                              0000000C
PIR2                              0000000D
MPASM 5.87                    SNAKE_GAME.ASM   6-10-2022  14:09:18         PAGE 24


SYMBOL TABLE
  LABEL                             VALUE 

PORTA                             00000005
PORTB                             00000006
PORTC                             00000007
PORTD                             00000008
PORTE                             00000009
PR2                               00000092
PRSEN                             00000007
PRTLD                             000000B9
PS0                               00000000
PS1                               00000001
PS2                               00000002
PSA                               00000003
PSSAC0                            00000002
PSSAC1                            00000003
PSSBD0                            00000000
PSSBD1                            00000001
PSTRCON                           0000009D
PULSR                             00000002
PULSS                             00000003
PWM1CON                           0000009B
PlacA                             00000159
PlacB                             0000015E
PlacC                             00000163
PlacD                             00000168
PlacE                             0000016D
PlacF                             00000172
PlacG                             00000177
Placecont                         0000013E
Posdir                            00000036
Posind                            00000035
R                                 00000002
RA0                               00000000
RA1                               00000001
RA2                               00000002
RA3                               00000003
RA4                               00000004
RA5                               00000005
RA6                               00000006
RA7                               00000007
RB0                               00000000
RB1                               00000001
RB2                               00000002
RB3                               00000003
RB4                               00000004
RB5                               00000005
RB6                               00000006
RB7                               00000007
RBIE                              00000003
RBIF                              00000000
RC0                               00000000
RC1                               00000001
RC2                               00000002
RC3                               00000003
MPASM 5.87                    SNAKE_GAME.ASM   6-10-2022  14:09:18         PAGE 25


SYMBOL TABLE
  LABEL                             VALUE 

RC4                               00000004
RC5                               00000005
RC6                               00000006
RC7                               00000007
RC8_9                             00000006
RC9                               00000006
RCD8                              00000000
RCEN                              00000003
RCIDL                             00000006
RCIE                              00000005
RCIF                              00000005
RCREG                             0000001A
RCSTA                             00000018
RD                                00000000
RD0                               00000000
RD1                               00000001
RD2                               00000002
RD3                               00000003
RD4                               00000004
RD5                               00000005
RD6                               00000006
RD7                               00000007
RE0                               00000000
RE1                               00000001
RE2                               00000002
RE3                               00000003
READ_WRITE                        00000002
RIGHT                             PORTB, RB4
ROW1                              PORTD, RD0
ROW2                              PORTD, RD1
ROW3                              PORTD, RD2
ROW4                              PORTD, RD3
ROW5                              PORTD, RD4
ROW6                              PORTD, RD5
ROW7                              PORTD, RD6
ROW8                              PORTD, RD7
RP0                               00000005
RP1                               00000006
RSEN                              00000001
RX9                               00000006
RX9D                              00000000
RX_INT                            000000F7
R_NOT_W                           00000002
R_W                               00000002
Random                            00000297
Rantbl                            000002A2
Rat                               00000281
S                                 00000003
S1                                0000002D
S2                                0000002E
S3                                0000002F
S4                                00000030
S5                                00000031
MPASM 5.87                    SNAKE_GAME.ASM   6-10-2022  14:09:18         PAGE 26


SYMBOL TABLE
  LABEL                             VALUE 

S6                                00000032
S7                                00000033
S8                                00000034
SBOREN                            00000004
SCKP                              00000004
SCS                               00000000
SEN                               00000000
SENDB                             00000003
SMP                               00000007
SPBRG                             00000099
SPBRGH                            0000009A
SPEN                              00000007
SR0                               00000006
SR1                               00000007
SRCON                             00000185
SREN                              00000005
SSPADD                            00000093
SSPBUF                            00000013
SSPCON                            00000014
SSPCON2                           00000091
SSPEN                             00000005
SSPIE                             00000003
SSPIF                             00000003
SSPM0                             00000000
SSPM1                             00000001
SSPM2                             00000002
SSPM3                             00000003
SSPMSK                            00000093
SSPOV                             00000006
SSPSTAT                           00000094
STATUS                            00000003
STRA                              00000000
STRB                              00000001
STRC                              00000002
STRD                              00000003
STRSYNC                           00000004
SWDTEN                            00000000
SYNC                              00000004
Start                             00000078
T0CS                              00000005
T0IE                              00000005
T0IF                              00000002
T0SE                              00000004
T1CKPS0                           00000004
T1CKPS1                           00000005
T1CON                             00000010
T1GINV                            00000007
T1GIV                             00000007
T1GSS                             00000001
T1H                               0000003D
T1INSYNC                          00000002
T1OSCEN                           00000003
T1SYNC                            00000002
MPASM 5.87                    SNAKE_GAME.ASM   6-10-2022  14:09:18         PAGE 27


SYMBOL TABLE
  LABEL                             VALUE 

T2CKPS0                           00000000
T2CKPS1                           00000001
T2CON                             00000012
TMR0                              00000001
TMR0IE                            00000005
TMR0IF                            00000002
TMR1                              0000000E
TMR1CS                            00000001
TMR1GE                            00000006
TMR1H                             0000000F
TMR1IE                            00000000
TMR1IF                            00000000
TMR1L                             0000000E
TMR1ON                            00000000
TMR1_INT                          000000FC
TMR2                              00000011
TMR2IE                            00000001
TMR2IF                            00000001
TMR2ON                            00000002
TOUTPS0                           00000003
TOUTPS1                           00000004
TOUTPS2                           00000005
TOUTPS3                           00000006
TRISA                             00000085
TRISA0                            00000000
TRISA1                            00000001
TRISA2                            00000002
TRISA3                            00000003
TRISA4                            00000004
TRISA5                            00000005
TRISA6                            00000006
TRISA7                            00000007
TRISB                             00000086
TRISB0                            00000000
TRISB1                            00000001
TRISB2                            00000002
TRISB3                            00000003
TRISB4                            00000004
TRISB5                            00000005
TRISB6                            00000006
TRISB7                            00000007
TRISC                             00000087
TRISC0                            00000000
TRISC1                            00000001
TRISC2                            00000002
TRISC3                            00000003
TRISC4                            00000004
TRISC5                            00000005
TRISC6                            00000006
TRISC7                            00000007
TRISD                             00000088
TRISD0                            00000000
TRISD1                            00000001
MPASM 5.87                    SNAKE_GAME.ASM   6-10-2022  14:09:18         PAGE 28


SYMBOL TABLE
  LABEL                             VALUE 

TRISD2                            00000002
TRISD3                            00000003
TRISD4                            00000004
TRISD5                            00000005
TRISD6                            00000006
TRISD7                            00000007
TRISE                             00000089
TRISE0                            00000000
TRISE1                            00000001
TRISE2                            00000002
TRISE3                            00000003
TRMT                              00000001
TUN0                              00000000
TUN1                              00000001
TUN2                              00000002
TUN3                              00000003
TUN4                              00000004
TX8_9                             00000006
TX9                               00000006
TX9D                              00000000
TXD8                              00000000
TXEN                              00000005
TXIE                              00000004
TXIF                              00000004
TXREG                             00000019
TXSTA                             00000098
UA                                00000001
ULPWUE                            00000005
ULPWUIE                           00000002
ULPWUIF                           00000002
UP                                PORTB, RB7
VCFG0                             00000004
VCFG1                             00000005
VR0                               00000000
VR1                               00000001
VR2                               00000002
VR3                               00000003
VRCON                             00000097
VREN                              00000007
VROE                              00000006
VRR                               00000005
VRSS                              00000004
W                                 00000000
WCOL                              00000007
WDTCON                            00000105
WDTPS0                            00000001
WDTPS1                            00000002
WDTPS2                            00000003
WDTPS3                            00000004
WPUB                              00000095
WPUB0                             00000000
WPUB1                             00000001
WPUB2                             00000002
MPASM 5.87                    SNAKE_GAME.ASM   6-10-2022  14:09:18         PAGE 29


SYMBOL TABLE
  LABEL                             VALUE 

WPUB3                             00000003
WPUB4                             00000004
WPUB5                             00000005
WPUB6                             00000006
WPUB7                             00000007
WR                                00000001
WREN                              00000002
WRERR                             00000003
WUE                               00000001
Z                                 00000002
_BOR21V                           00003EFF
_BOR40V                           00003FFF
_BOR4V_BOR21V                     00003EFF
_BOR4V_BOR40V                     00003FFF
_BOREN_NSLEEP                     00003EFF
_BOREN_OFF                        00003CFF
_BOREN_ON                         00003FFF
_BOREN_SBODEN                     00003DFF
_BOR_NSLEEP                       00003EFF
_BOR_OFF                          00003CFF
_BOR_ON                           00003FFF
_BOR_SBODEN                       00003DFF
_CONFIG1                          00002007
_CONFIG2                          00002008
_CPD_OFF                          00003FFF
_CPD_ON                           00003F7F
_CP_OFF                           00003FFF
_CP_ON                            00003FBF
_DEBUG_OFF                        00003FFF
_DEBUG_ON                         00001FFF
_DEVID1                           00002006
_EC_OSC                           00003FFB
_EXTRC                            00003FFF
_EXTRCIO                          00003FFE
_EXTRC_OSC_CLKOUT                 00003FFF
_EXTRC_OSC_NOCLKOUT               00003FFE
_FCMEN_OFF                        000037FF
_FCMEN_ON                         00003FFF
_FOSC_EC                          00003FFB
_FOSC_EXTRC_CLKOUT                00003FFF
_FOSC_EXTRC_NOCLKOUT              00003FFE
_FOSC_HS                          00003FFA
_FOSC_INTRC_CLKOUT                00003FFD
_FOSC_INTRC_NOCLKOUT              00003FFC
_FOSC_LP                          00003FF8
_FOSC_XT                          00003FF9
_HS_OSC                           00003FFA
_IDLOC0                           00002000
_IDLOC1                           00002001
_IDLOC2                           00002002
_IDLOC3                           00002003
_IESO_OFF                         00003BFF
_IESO_ON                          00003FFF
MPASM 5.87                    SNAKE_GAME.ASM   6-10-2022  14:09:18         PAGE 30


SYMBOL TABLE
  LABEL                             VALUE 

_INTOSC                           00003FFD
_INTOSCIO                         00003FFC
_INTRC_OSC_CLKOUT                 00003FFD
_INTRC_OSC_NOCLKOUT               00003FFC
_LP_OSC                           00003FF8
_LVP_OFF                          00002FFF
_LVP_ON                           00003FFF
_MCLRE_OFF                        00003FDF
_MCLRE_ON                         00003FFF
_PWRTE_OFF                        00003FFF
_PWRTE_ON                         00003FEF
_WDTE_OFF                         00003FF7
_WDTE_ON                          00003FFF
_WDT_OFF                          00003FF7
_WDT_ON                           00003FFF
_WRT_1FOURTH                      00003BFF
_WRT_256                          00003DFF
_WRT_HALF                         000039FF
_WRT_OFF                          00003FFF
_XT_OSC                           00003FF9
__16F887                          00000001
addrat                            00000292
clrram                            00000024
colind                            0000003B
colrat                            000001D7
delay1                            0000005F
delum                             000001DE
dotdecloop                        000001BD
gameover                          0000007E
here                              00000058
initloop                          00000064
loop                              00000071
loopy                             00000062
loopy2                            00000060
msdelay                           0000006F
notclr                            00000286
pclath_save                       00000039
plcdot                            00000267
ratcl                             000001DB
rattmr                            0000003C
skip                              00000110
snake                             0000003A
status_save                       00000038
table                             000001E7
temp                              00000020
temp2                             00000021
temp3                             00000022
temp4                             00000023
temp5                             00000024
w_save                            00000037
MPASM 5.87                    SNAKE_GAME.ASM   6-10-2022  14:09:18         PAGE 31


MEMORY USAGE MAP ('X' = Used,  '-' = Unused)


0000 : X---XXXXXXXXXXXX XXXXXXXXXXXXXXXX XXXXXXXXXXXXXXXX XXXXXXXXXXXXXXXX
0040 : XXXXXXXXXXXXXXXX XXXXXXXXXXXXXXXX XXXXXXXXXXXXXXXX XXXXXXXXXXXXXXXX
0080 : XXXXXXXXXXXXXXXX XXXXXXXXXXXXXXXX XXXXXXXXXXXXXXXX XXXXXXXXXXXXXXXX
00C0 : XXXXXXXXXXXXXXXX XXXXXXXXXXXXXXXX XXXXXXXXXXXXXXXX XXXXXXXXXXXXXXXX
0100 : XXXXXXXXXXXXXXXX XXXXXXXXXXXXXXXX XXXXXXXXXXXXXXXX XXXXXXXXXXXXXXXX
0140 : XXXXXXXXXXXXXXXX XXXXXXXXXXXXXXXX XXXXXXXXXXXXXXXX XXXXXXXXXXXXXXXX
0180 : XXXXXXXXXXXXXXXX XXXXXXXXXXXXXXXX XXXXXXXXXXXXXXXX XXXXXXXXXXXXXXXX
01C0 : XXXXXXXXXXXXXXXX XXXXXXXXXXXXXXXX XXXXXXXXXXXXXXXX XXXXXXXXXXXXXXXX
0200 : XXXXXXXXXXXXXXXX XXXXXXXXXXXXXXXX XXXXXXXXXXXXXXXX XXXXXXXXXXXXXXXX
0240 : XXXXXXXXXXXXXXXX XXXXXXXXXXXXXXXX XXXXXXXXXXXXXXXX XXXXXXXXXXXXXXXX
0280 : XXXXXXXXXXXXXXXX XXXXXXXXXXXXXXXX XXXXXXXXXXXXXXXX XXXXXXXXXXXXXXXX
02C0 : XXXXXXXXXXXXXXXX XXXXXXXXXXXXXXXX XX-------------- ----------------
2000 : -------XX------- ---------------- ---------------- ----------------

All other memory blocks unused.

Program Memory Words Used:   735
Program Memory Words Free:  7457


Errors   :     0
Warnings :     0 reported,     0 suppressed
Messages :     8 reported,     0 suppressed

